; ModuleID = '10/1286.c'
source_filename = "10/1286.c"
target datalayout = "e-m:e-p270:32:32-p271:32:32-p272:64:64-i64:64-f80:128-n8:16:32:64-S128"
target triple = "x86_64-pc-linux-gnu"

@.str = private unnamed_addr constant [3 x i8] c"%d\00", align 1

; Function Attrs: noinline nounwind uwtable
define dso_local void @main() #0 {
  %1 = alloca i32, align 4
  %2 = alloca i32, align 4
  %3 = alloca i32, align 4
  %4 = alloca i32, align 4
  %5 = alloca [25 x i32], align 16
  %6 = alloca [25 x [25 x i32]], align 16
  %7 = call i32 (i8*, ...) @__isoc99_scanf(i8* getelementptr inbounds ([3 x i8], [3 x i8]* @.str, i64 0, i64 0), i32* %1)
  store i32 0, i32* %2, align 4
  br label %8

8:                                                ; preds = %17, %0
  %9 = load i32, i32* %2, align 4
  %10 = load i32, i32* %1, align 4
  %11 = icmp slt i32 %9, %10
  br i1 %11, label %12, label %20

12:                                               ; preds = %8
  %13 = load i32, i32* %2, align 4
  %14 = sext i32 %13 to i64
  %15 = getelementptr inbounds [25 x i32], [25 x i32]* %5, i64 0, i64 %14
  %16 = call i32 (i8*, ...) @__isoc99_scanf(i8* getelementptr inbounds ([3 x i8], [3 x i8]* @.str, i64 0, i64 0), i32* %15)
  br label %17

17:                                               ; preds = %12
  %18 = load i32, i32* %2, align 4
  %19 = add nsw i32 %18, 1
  store i32 %19, i32* %2, align 4
  br label %8

20:                                               ; preds = %8
  store i32 0, i32* %2, align 4
  br label %21

21:                                               ; preds = %53, %20
  %22 = load i32, i32* %2, align 4
  %23 = load i32, i32* %1, align 4
  %24 = icmp slt i32 %22, %23
  br i1 %24, label %25, label %56

25:                                               ; preds = %21
  %26 = load i32, i32* %2, align 4
  %27 = sext i32 %26 to i64
  %28 = getelementptr inbounds [25 x i32], [25 x i32]* %5, i64 0, i64 %27
  %29 = load i32, i32* %28, align 4
  %30 = load i32, i32* %1, align 4
  %31 = sub nsw i32 %30, 1
  %32 = sext i32 %31 to i64
  %33 = getelementptr inbounds [25 x i32], [25 x i32]* %5, i64 0, i64 %32
  %34 = load i32, i32* %33, align 4
  %35 = icmp sge i32 %29, %34
  br i1 %35, label %36, label %44

36:                                               ; preds = %25
  %37 = load i32, i32* %1, align 4
  %38 = sub nsw i32 %37, 1
  %39 = sext i32 %38 to i64
  %40 = getelementptr inbounds [25 x [25 x i32]], [25 x [25 x i32]]* %6, i64 0, i64 %39
  %41 = load i32, i32* %2, align 4
  %42 = sext i32 %41 to i64
  %43 = getelementptr inbounds [25 x i32], [25 x i32]* %40, i64 0, i64 %42
  store i32 1, i32* %43, align 4
  br label %52

44:                                               ; preds = %25
  %45 = load i32, i32* %1, align 4
  %46 = sub nsw i32 %45, 1
  %47 = sext i32 %46 to i64
  %48 = getelementptr inbounds [25 x [25 x i32]], [25 x [25 x i32]]* %6, i64 0, i64 %47
  %49 = load i32, i32* %2, align 4
  %50 = sext i32 %49 to i64
  %51 = getelementptr inbounds [25 x i32], [25 x i32]* %48, i64 0, i64 %50
  store i32 0, i32* %51, align 4
  br label %52

52:                                               ; preds = %44, %36
  br label %53

53:                                               ; preds = %52
  %54 = load i32, i32* %2, align 4
  %55 = add nsw i32 %54, 1
  store i32 %55, i32* %2, align 4
  br label %21

56:                                               ; preds = %21
  %57 = load i32, i32* %1, align 4
  %58 = sub nsw i32 %57, 2
  store i32 %58, i32* %3, align 4
  br label %59

59:                                               ; preds = %131, %56
  %60 = load i32, i32* %3, align 4
  %61 = icmp sge i32 %60, 0
  br i1 %61, label %62, label %134

62:                                               ; preds = %59
  store i32 0, i32* %2, align 4
  br label %63

63:                                               ; preds = %127, %62
  %64 = load i32, i32* %2, align 4
  %65 = load i32, i32* %3, align 4
  %66 = icmp sle i32 %64, %65
  br i1 %66, label %67, label %130

67:                                               ; preds = %63
  %68 = load i32, i32* %3, align 4
  %69 = sext i32 %68 to i64
  %70 = getelementptr inbounds [25 x i32], [25 x i32]* %5, i64 0, i64 %69
  %71 = load i32, i32* %70, align 4
  %72 = load i32, i32* %2, align 4
  %73 = sext i32 %72 to i64
  %74 = getelementptr inbounds [25 x i32], [25 x i32]* %5, i64 0, i64 %73
  %75 = load i32, i32* %74, align 4
  %76 = icmp sgt i32 %71, %75
  br i1 %76, label %77, label %88

77:                                               ; preds = %67
  store i32 0, i32* %4, align 4
  %78 = load i32, i32* %3, align 4
  %79 = add nsw i32 %78, 1
  %80 = sext i32 %79 to i64
  %81 = getelementptr inbounds [25 x [25 x i32]], [25 x [25 x i32]]* %6, i64 0, i64 %80
  %82 = load i32, i32* %2, align 4
  %83 = sext i32 %82 to i64
  %84 = getelementptr inbounds [25 x i32], [25 x i32]* %81, i64 0, i64 %83
  %85 = load i32, i32* %84, align 4
  %86 = load i32, i32* %4, align 4
  %87 = add nsw i32 %86, %85
  store i32 %87, i32* %4, align 4
  br label %99

88:                                               ; preds = %67
  store i32 1, i32* %4, align 4
  %89 = load i32, i32* %3, align 4
  %90 = add nsw i32 %89, 1
  %91 = sext i32 %90 to i64
  %92 = getelementptr inbounds [25 x [25 x i32]], [25 x [25 x i32]]* %6, i64 0, i64 %91
  %93 = load i32, i32* %3, align 4
  %94 = sext i32 %93 to i64
  %95 = getelementptr inbounds [25 x i32], [25 x i32]* %92, i64 0, i64 %94
  %96 = load i32, i32* %95, align 4
  %97 = load i32, i32* %4, align 4
  %98 = add nsw i32 %97, %96
  store i32 %98, i32* %4, align 4
  br label %99

99:                                               ; preds = %88, %77
  %100 = load i32, i32* %4, align 4
  %101 = load i32, i32* %3, align 4
  %102 = add nsw i32 %101, 1
  %103 = sext i32 %102 to i64
  %104 = getelementptr inbounds [25 x [25 x i32]], [25 x [25 x i32]]* %6, i64 0, i64 %103
  %105 = load i32, i32* %2, align 4
  %106 = sext i32 %105 to i64
  %107 = getelementptr inbounds [25 x i32], [25 x i32]* %104, i64 0, i64 %106
  %108 = load i32, i32* %107, align 4
  %109 = icmp slt i32 %100, %108
  br i1 %109, label %110, label %119

110:                                              ; preds = %99
  %111 = load i32, i32* %3, align 4
  %112 = add nsw i32 %111, 1
  %113 = sext i32 %112 to i64
  %114 = getelementptr inbounds [25 x [25 x i32]], [25 x [25 x i32]]* %6, i64 0, i64 %113
  %115 = load i32, i32* %2, align 4
  %116 = sext i32 %115 to i64
  %117 = getelementptr inbounds [25 x i32], [25 x i32]* %114, i64 0, i64 %116
  %118 = load i32, i32* %117, align 4
  store i32 %118, i32* %4, align 4
  br label %119

119:                                              ; preds = %110, %99
  %120 = load i32, i32* %4, align 4
  %121 = load i32, i32* %3, align 4
  %122 = sext i32 %121 to i64
  %123 = getelementptr inbounds [25 x [25 x i32]], [25 x [25 x i32]]* %6, i64 0, i64 %122
  %124 = load i32, i32* %2, align 4
  %125 = sext i32 %124 to i64
  %126 = getelementptr inbounds [25 x i32], [25 x i32]* %123, i64 0, i64 %125
  store i32 %120, i32* %126, align 4
  br label %127

127:                                              ; preds = %119
  %128 = load i32, i32* %2, align 4
  %129 = add nsw i32 %128, 1
  store i32 %129, i32* %2, align 4
  br label %63

130:                                              ; preds = %63
  br label %131

131:                                              ; preds = %130
  %132 = load i32, i32* %3, align 4
  %133 = add nsw i32 %132, -1
  store i32 %133, i32* %3, align 4
  br label %59

134:                                              ; preds = %59
  store i32 0, i32* %4, align 4
  store i32 0, i32* %2, align 4
  br label %135

135:                                              ; preds = %158, %134
  %136 = load i32, i32* %2, align 4
  %137 = load i32, i32* %1, align 4
  %138 = icmp slt i32 %136, %137
  br i1 %138, label %139, label %161

139:                                              ; preds = %135
  %140 = load i32, i32* %2, align 4
  %141 = sext i32 %140 to i64
  %142 = getelementptr inbounds [25 x [25 x i32]], [25 x [25 x i32]]* %6, i64 0, i64 %141
  %143 = load i32, i32* %2, align 4
  %144 = sext i32 %143 to i64
  %145 = getelementptr inbounds [25 x i32], [25 x i32]* %142, i64 0, i64 %144
  %146 = load i32, i32* %145, align 4
  %147 = load i32, i32* %4, align 4
  %148 = icmp sgt i32 %146, %147
  br i1 %148, label %149, label %157

149:                                              ; preds = %139
  %150 = load i32, i32* %2, align 4
  %151 = sext i32 %150 to i64
  %152 = getelementptr inbounds [25 x [25 x i32]], [25 x [25 x i32]]* %6, i64 0, i64 %151
  %153 = load i32, i32* %2, align 4
  %154 = sext i32 %153 to i64
  %155 = getelementptr inbounds [25 x i32], [25 x i32]* %152, i64 0, i64 %154
  %156 = load i32, i32* %155, align 4
  store i32 %156, i32* %4, align 4
  br label %157

157:                                              ; preds = %149, %139
  br label %158

158:                                              ; preds = %157
  %159 = load i32, i32* %2, align 4
  %160 = add nsw i32 %159, 1
  store i32 %160, i32* %2, align 4
  br label %135

161:                                              ; preds = %135
  %162 = load i32, i32* %4, align 4
  %163 = call i32 (i8*, ...) @printf(i8* getelementptr inbounds ([3 x i8], [3 x i8]* @.str, i64 0, i64 0), i32 %162)
  ret void
}

declare dso_local i32 @__isoc99_scanf(i8*, ...) #1

declare dso_local i32 @printf(i8*, ...) #1


!llvm.module.flags = !{!0}
!llvm.ident = !{!1}

!0 = !{i32 1, !"wchar_size", i32 4}
!1 = !{!"clang version 10.0.0-4ubuntu1 "}
